target datalayout = "e-m:e-p270:32:32-p271:32:32-p272:64:64-i64:64-i128:128-f80:128-n8:16:32:64-S128"
target triple = "x86_64-pc-linux-gnu"

%struct._ct_dissector_info = type { ptr }
%struct._packet_info = type { ptr, ptr, i32, i32, %struct.nstime_t, %struct.nstime_t, %struct.nstime_t, i8, ptr, ptr, ptr, ptr, %struct._address, %struct._address, %struct._address, %struct._address, %struct._address, %struct._address, i32, ptr, i8, [3 x i8], %struct.anon, i32, i32, i32, i32, ptr, i8, ptr, ptr, i16, i16, i32, i32, i16, i32, i32, ptr, ptr, ptr, i8, i8, i16, i16, i16, i32, i16, i16, ptr, ptr, ptr, ptr, ptr, i32, i32 }
%struct.nstime_t = type { i64, i32 }
%struct._address = type { i32, i32, ptr, ptr }
%struct.anon = type { i8, [3 x i8] }
%struct._ws_ip6 = type { i8, i8, i32, i32, i8, i8, %struct._address, %struct._address, i32 }
%struct._frame_data = type <{ i32, i32, i32, i32, i32, [4 x i8], i64, ptr, ptr, ptr, i8, i16, [5 x i8], %struct.nstime_t, %struct.nstime_t, i32, i32 }>
%struct._conversation_hash_t = type { ptr, ptr, ptr, i32 }

@ipv6_track_conv_id = internal global i8 1, align 1
@ipv6_ct_dissector_info = internal global %struct._ct_dissector_info { ptr @ipv6_conv_get_filter_type }, align 8

; Function Attrs: null_pointer_is_valid sspstrong uwtable
define internal i32 @ipv6_conversation_packet(ptr noundef %0, ptr noundef %1, ptr noundef %2, ptr noundef %3, i32 noundef %4) #0 {
  %6 = alloca ptr, align 8
  %7 = alloca ptr, align 8
  %8 = alloca ptr, align 8
  %9 = alloca ptr, align 8
  %10 = alloca i32, align 4
  %11 = alloca ptr, align 8
  %12 = alloca ptr, align 8
  store ptr %0, ptr %6, align 8
  store ptr %1, ptr %7, align 8
  store ptr %2, ptr %8, align 8
  store ptr %3, ptr %9, align 8
  store i32 %4, ptr %10, align 4
  call void @llvm.lifetime.start.p0(i64 8, ptr %11) #15
  %13 = load ptr, ptr %6, align 8
  store ptr %13, ptr %11, align 8
  %14 = load i32, ptr %10, align 4
  %15 = load ptr, ptr %11, align 8
  %16 = getelementptr inbounds nuw %struct._conversation_hash_t, ptr %15, i32 0, i32 3
  store i32 %14, ptr %16, align 8
  call void @llvm.lifetime.start.p0(i64 8, ptr %12) #15
  %17 = load ptr, ptr %9, align 8
  store ptr %17, ptr %12, align 8
  %18 = load i8, ptr @ipv6_track_conv_id, align 1, !range !6, !noundef !7
  %19 = trunc i8 %18 to i1
  br i1 %19, label %35, label %20

20:                                               ; preds = %5
  %21 = load ptr, ptr %11, align 8
  %22 = load ptr, ptr %12, align 8
  %23 = getelementptr inbounds nuw %struct._ws_ip6, ptr %22, i32 0, i32 6
  %24 = load ptr, ptr %12, align 8
  %25 = getelementptr inbounds nuw %struct._ws_ip6, ptr %24, i32 0, i32 7
  %26 = load ptr, ptr %7, align 8
  %27 = getelementptr inbounds nuw %struct._packet_info, ptr %26, i32 0, i32 8
  %28 = load ptr, ptr %27, align 8
  %29 = getelementptr inbounds nuw %struct._frame_data, ptr %28, i32 0, i32 2
  %30 = load i32, ptr %29, align 8
  %31 = load ptr, ptr %7, align 8
  %32 = getelementptr inbounds nuw %struct._packet_info, ptr %31, i32 0, i32 5
  %33 = load ptr, ptr %7, align 8
  %34 = getelementptr inbounds nuw %struct._packet_info, ptr %33, i32 0, i32 4
  call void @add_conversation_table_data(ptr noundef %21, ptr noundef %23, ptr noundef %25, i32 noundef 0, i32 noundef 0, i32 noundef 1, i32 noundef %30, ptr noundef %32, ptr noundef %34, ptr noundef @ipv6_ct_dissector_info, i32 noundef 40)
  br label %54

35:                                               ; preds = %5
  %36 = load ptr, ptr %11, align 8
  %37 = load ptr, ptr %12, align 8
  %38 = getelementptr inbounds nuw %struct._ws_ip6, ptr %37, i32 0, i32 6
  %39 = load ptr, ptr %12, align 8
  %40 = getelementptr inbounds nuw %struct._ws_ip6, ptr %39, i32 0, i32 7
  %41 = load ptr, ptr %12, align 8
  %42 = getelementptr inbounds nuw %struct._ws_ip6, ptr %41, i32 0, i32 8
  %43 = load i32, ptr %42, align 8
  %44 = load ptr, ptr %7, align 8
  %45 = getelementptr inbounds nuw %struct._packet_info, ptr %44, i32 0, i32 8
  %46 = load ptr, ptr %45, align 8
  %47 = getelementptr inbounds nuw %struct._frame_data, ptr %46, i32 0, i32 2
  %48 = load i32, ptr %47, align 8
  %49 = load ptr, ptr %7, align 8
  %50 = getelementptr inbounds nuw %struct._packet_info, ptr %49, i32 0, i32 5
  %51 = load ptr, ptr %7, align 8
  %52 = getelementptr inbounds nuw %struct._packet_info, ptr %51, i32 0, i32 4
  %53 = call ptr @add_conversation_table_data_with_conv_id(ptr noundef %36, ptr noundef %38, ptr noundef %40, i32 noundef 0, i32 noundef 0, i32 noundef %43, i32 noundef 1, i32 noundef %48, ptr noundef %50, ptr noundef %52, ptr noundef @ipv6_ct_dissector_info, i32 noundef 40)
  br label %54

54:                                               ; preds = %35, %20
  call void @llvm.lifetime.end.p0(i64 8, ptr %12) #15
  call void @llvm.lifetime.end.p0(i64 8, ptr %11) #15
  ret i32 1
}