; Function Attrs: null_pointer_is_valid sspstrong uwtable
define internal noundef i32 @ipv6_conversation_packet(ptr noundef initializes((24, 28)) %0, ptr noundef %1, ptr readnone captures(none) %2, ptr noundef %3, i32 noundef %4) #0 {
  %6 = getelementptr inbounds nuw i8, ptr %0, i64 24
  store i32 %4, ptr %6, align 8
  %7 = load i8, ptr @ipv6_track_conv_id, align 1, !range !6, !noundef !7
  %8 = trunc nuw i8 %7 to i1
  %9 = getelementptr inbounds nuw i8, ptr %3, i64 16
  %10 = getelementptr inbounds nuw i8, ptr %3, i64 40
  br i1 %8, label %18, label %11

11:                                               ; preds = %5
  %12 = getelementptr inbounds nuw i8, ptr %1, i64 80
  %13 = load ptr, ptr %12, align 8
  %14 = getelementptr inbounds nuw i8, ptr %13, i64 8
  %15 = load i32, ptr %14, align 8
  %16 = getelementptr inbounds nuw i8, ptr %1, i64 40
  %17 = getelementptr inbounds nuw i8, ptr %1, i64 24
  tail call void @add_conversation_table_data(ptr noundef %0, ptr noundef nonnull %9, ptr noundef nonnull %10, i32 noundef 0, i32 noundef 0, i32 noundef 1, i32 noundef %15, ptr noundef nonnull %16, ptr noundef nonnull %17, ptr noundef nonnull @ipv6_ct_dissector_info, i32 noundef 40)
  br label %28

18:                                               ; preds = %5
  %19 = getelementptr inbounds nuw i8, ptr %3, i64 64
  %20 = load i32, ptr %19, align 8
  %21 = getelementptr inbounds nuw i8, ptr %1, i64 80
  %22 = load ptr, ptr %21, align 8
  %23 = getelementptr inbounds nuw i8, ptr %22, i64 8
  %24 = load i32, ptr %23, align 8
  %25 = getelementptr inbounds nuw i8, ptr %1, i64 40
  %26 = getelementptr inbounds nuw i8, ptr %1, i64 24
  %27 = tail call ptr @add_conversation_table_data_with_conv_id(ptr noundef %0, ptr noundef nonnull %9, ptr noundef nonnull %10, i32 noundef 0, i32 noundef 0, i32 noundef %20, i32 noundef 1, i32 noundef %24, ptr noundef nonnull %25, ptr noundef nonnull %26, ptr noundef nonnull @ipv6_ct_dissector_info, i32 noundef 40)
  br label %28

28:                                               ; preds = %18, %11
  ret i32 1
}